; Function Attrs: nofree norecurse nosync nounwind memory(read, inaccessiblemem: none) uwtable
define internal range(i32 0, 52) i32 @HIDAPI_DriverGIP_GetJoystickCapabilities(ptr noundef readonly captures(none) %0, ptr noundef readonly captures(none) %1) #3 {
  %3 = getelementptr i8, ptr %0, i64 112
  %.val = load ptr, ptr %3, align 8
  %4 = getelementptr inbounds nuw i8, ptr %.val, i64 24
  br label %5

5:                                                ; preds = %13, %2
  %indvars.iv.i = phi i64 [ 0, %2 ], [ %indvars.iv.next.i, %13 ]
  %6 = getelementptr inbounds nuw [8 x ptr], ptr %4, i64 0, i64 %indvars.iv.i
  %7 = load ptr, ptr %6, align 8
  %.not.i = icmp eq ptr %7, null
  br i1 %.not.i, label %13, label %8

8:                                                ; preds = %5
  %9 = getelementptr inbounds nuw i8, ptr %7, i64 12
  %10 = load i32, ptr %9, align 4
  %11 = load i32, ptr %1, align 8
  %12 = icmp eq i32 %10, %11
  br i1 %12, label %HIDAPI_DriverGIP_FindAttachment.exit, label %13

13:                                               ; preds = %8, %5
  %indvars.iv.next.i = add nuw nsw i64 %indvars.iv.i, 1
  %exitcond.not.i = icmp eq i64 %indvars.iv.next.i, 8
  br i1 %exitcond.not.i, label %HIDAPI_DriverGIP_FindAttachment.exit.thread, label %5, !llvm.loop !12

HIDAPI_DriverGIP_FindAttachment.exit:             ; preds = %8
  %14 = getelementptr inbounds nuw i8, ptr %7, i64 332
  %15 = load i32, ptr %14, align 4
  %16 = and i32 %15, 32
  %.not12 = icmp eq i32 %16, 0
  br i1 %.not12, label %21, label %17

17:                                               ; preds = %HIDAPI_DriverGIP_FindAttachment.exit
  %18 = getelementptr inbounds nuw i8, ptr %7, i64 336
  %19 = load i32, ptr %18, align 8
  %20 = and i32 %19, 4
  %.not13 = icmp eq i32 %20, 0
  %spec.select = select i1 %.not13, i32 48, i32 16
  br label %21

21:                                               ; preds = %17, %HIDAPI_DriverGIP_FindAttachment.exit
  %.0 = phi i32 [ 0, %HIDAPI_DriverGIP_FindAttachment.exit ], [ %spec.select, %17 ]
  %22 = lshr i32 %15, 5
  %23 = and i32 %22, 2
  %spec.select15 = or disjoint i32 %.0, %23
  br label %HIDAPI_DriverGIP_FindAttachment.exit.thread

HIDAPI_DriverGIP_FindAttachment.exit.thread:      ; preds = %13, %21
  %.010 = phi i32 [ %spec.select15, %21 ], [ 0, %13 ]
  ret i32 %.010
}